; Function Attrs: nounwind uwtable
define ptr @l_ExceptCpsT_instMonad___lambda__6(ptr noundef %0, ptr noundef %1, ptr noundef %2, ptr noundef %3) #0 {
  tail call void @lean_inc_heartbeat() #4
  %5 = tail call noalias ptr @mi_malloc_small(i64 noundef 40) #4
  %6 = icmp eq ptr %5, null
  br i1 %6, label %7, label %lean_alloc_closure.exit

7:                                                ; preds = %4
  tail call void @lean_internal_panic_out_of_memory() #5
  unreachable

lean_alloc_closure.exit:                          ; preds = %4
  %8 = getelementptr inbounds nuw i8, ptr %5, i64 4
  store i32 1, ptr %5, align 4, !tbaa !8
  store i32 -184549336, ptr %8, align 4
  %9 = getelementptr inbounds nuw i8, ptr %5, i64 8
  store ptr @l_ExceptCpsT_instMonad___lambda__1, ptr %9, align 8, !tbaa !4
  %10 = getelementptr inbounds nuw i8, ptr %5, i64 16
  store i16 3, ptr %10, align 8, !tbaa !12
  %11 = getelementptr inbounds nuw i8, ptr %5, i64 18
  store i16 2, ptr %11, align 2, !tbaa !12
  %12 = getelementptr inbounds nuw i8, ptr %5, i64 24
  store ptr %3, ptr %12, align 8, !tbaa !4
  %13 = getelementptr inbounds nuw i8, ptr %5, i64 32
  store ptr %0, ptr %13, align 8, !tbaa !4
  %14 = tail call ptr @lean_apply_4(ptr noundef %1, ptr noundef nonnull inttoptr (i64 1 to ptr), ptr noundef nonnull inttoptr (i64 1 to ptr), ptr noundef nonnull %5, ptr noundef %2) #4
  ret ptr %14
}